Certificate:
    Data:
        Version: 3 (0x2)
        Serial Number: 1 (0x1)
    Signature Algorithm: sha256WithRSAEncryption
        Issuer: C=FR, ST=Radius, L=Somewhere, O=Example Inc./emailAddress=admin@example.org, CN=Example Certificate Authority
        Validity
            Not Before: Jun 12 14:37:11 2022 GMT
            Not After : Aug 11 14:37:11 2022 GMT
        Subject: C=FR, ST=Radius, O=Example Inc., CN=Example Server Certificate/emailAddress=admin@example.org
        Subject Public Key Info:
            Public Key Algorithm: rsaEncryption
                Public-Key: (2048 bit)
                Modulus:
                    00:af:e9:9b:ae:14:4d:c6:01:c4:e2:24:a4:2e:da:
                    a4:2e:64:d9:bf:70:af:b0:53:61:b4:00:93:a8:49:
                    99:0c:64:79:74:f2:5f:0f:c7:87:b6:13:83:c1:50:
                    b5:a8:26:cc:c5:18:4c:ec:34:a9:fb:f2:9d:96:f6:
                    9c:03:b0:8b:34:66:35:67:00:34:34:5c:e8:cf:ed:
                    a6:d7:ad:34:d2:41:43:37:c1:9c:84:f2:3a:b9:0d:
                    58:7a:47:16:76:56:11:5c:88:e9:1c:36:7b:7a:c2:
                    43:a4:e2:b0:9a:da:7c:7b:c3:15:5b:df:98:b9:ba:
                    b5:2b:e5:df:fb:b8:a0:65:a2:d9:d0:47:2e:76:4b:
                    e2:4d:e4:d4:98:d1:ca:3c:2c:b2:94:48:67:24:c8:
                    c7:92:3e:22:05:d2:c5:a2:1e:d3:3b:0c:70:be:3d:
                    7a:c6:77:cb:8f:87:b0:54:85:79:d7:d5:d4:ae:a6:
                    9a:ab:58:df:cd:38:91:51:de:17:3d:47:21:71:d8:
                    35:33:25:01:1c:11:ba:42:76:92:e3:cc:53:ad:7e:
                    ca:4b:d2:fa:c3:84:32:96:64:89:04:db:a5:28:0e:
                    35:c0:4b:94:fd:46:15:fd:27:85:b3:0c:c5:55:53:
                    39:8b:f9:a8:ce:97:7f:35:b2:40:7c:dd:82:e0:7e:
                    6f:05
                Exponent: 65537 (0x10001)
        X509v3 extensions:
            X509v3 Extended Key Usage: 
                TLS Web Server Authentication
            X509v3 CRL Distribution Points: 

                Full Name:
                  URI:http://www.example.com/example_ca.crl

            X509v3 Certificate Policies: 
                Policy: 1.3.6.1.4.1.40808.1.3.2

    Signature Algorithm: sha256WithRSAEncryption
         5b:6a:46:43:3d:4a:8c:be:a7:ac:60:e6:9d:f7:d1:90:da:63:
         d5:25:26:8e:2c:2e:92:09:83:ec:dd:73:36:07:10:b3:b5:04:
         7a:c6:05:ee:00:c4:43:45:af:d6:c5:77:42:4d:d6:95:45:ff:
         dc:4e:a0:2f:14:26:91:12:6d:2e:e7:3d:6e:f1:45:87:4e:e2:
         41:06:71:90:7a:83:eb:d9:f8:b4:91:7d:e2:c4:be:61:17:48:
         27:a5:62:cb:27:ad:e2:72:84:00:a1:95:88:d3:f3:1b:b8:28:
         d3:7e:5c:de:fa:4d:78:1b:dc:60:8c:39:aa:47:e3:6d:59:01:
         fd:80:6d:9f:50:5f:73:f8:66:69:99:d3:24:0d:36:46:2d:86:
         0e:f2:02:02:55:79:44:a5:4f:0c:7d:b0:02:e2:1e:13:20:79:
         09:d8:9f:f9:64:fd:9f:93:93:87:09:7d:8e:f1:75:d5:18:d3:
         02:1e:43:6d:97:32:f1:e6:86:cd:72:0a:63:0f:51:f8:8c:cb:
         94:d9:2c:0f:69:87:fb:db:69:9d:6a:19:db:a2:73:64:b9:80:
         2f:eb:4e:ea:b7:ce:ea:e0:91:84:5e:81:6d:2a:16:a4:be:c8:
         2e:d0:ef:f1:f1:8d:df:3c:d6:57:5b:af:af:98:8f:a5:a7:fc:
         4a:55:b6:43
-----BEGIN CERTIFICATE-----
MIID9DCCAtygAwIBAgIBATANBgkqhkiG9w0BAQsFADCBkzELMAkGA1UEBhMCRlIx
DzANBgNVBAgMBlJhZGl1czESMBAGA1UEBwwJU29tZXdoZXJlMRUwEwYDVQQKDAxF
eGFtcGxlIEluYy4xIDAeBgkqhkiG9w0BCQEWEWFkbWluQGV4YW1wbGUub3JnMSYw
JAYDVQQDDB1FeGFtcGxlIENlcnRpZmljYXRlIEF1dGhvcml0eTAeFw0yMjA2MTIx
NDM3MTFaFw0yMjA4MTExNDM3MTFaMHwxCzAJBgNVBAYTAkZSMQ8wDQYDVQQIDAZS
YWRpdXMxFTATBgNVBAoMDEV4YW1wbGUgSW5jLjEjMCEGA1UEAwwaRXhhbXBsZSBT
ZXJ2ZXIgQ2VydGlmaWNhdGUxIDAeBgkqhkiG9w0BCQEWEWFkbWluQGV4YW1wbGUu
b3JnMIIBIjANBgkqhkiG9w0BAQEFAAOCAQ8AMIIBCgKCAQEAr+mbrhRNxgHE4iSk
LtqkLmTZv3CvsFNhtACTqEmZDGR5dPJfD8eHthODwVC1qCbMxRhM7DSp+/Kdlvac
A7CLNGY1ZwA0NFzoz+2m16000kFDN8GchPI6uQ1YekcWdlYRXIjpHDZ7esJDpOKw
mtp8e8MVW9+Yubq1K+Xf+7igZaLZ0EcudkviTeTUmNHKPCyylEhnJMjHkj4iBdLF
oh7TOwxwvj16xnfLj4ewVIV519XUrqaaq1jfzTiRUd4XPUchcdg1MyUBHBG6QnaS
48xTrX7KS9L6w4QylmSJBNulKA41wEuU/UYV/SeFswzFVVM5i/mozpd/NbJAfN2C
4H5vBQIDAQABo2kwZzATBgNVHSUEDDAKBggrBgEFBQcDATA2BgNVHR8ELzAtMCug
KaAnhiVodHRwOi8vd3d3LmV4YW1wbGUuY29tL2V4YW1wbGVfY2EuY3JsMBgGA1Ud
IAQRMA8wDQYLKwYBBAGCvmgBAwIwDQYJKoZIhvcNAQELBQADggEBAFtqRkM9Soy+
p6xg5p330ZDaY9UlJo4sLpIJg+zdczYHELO1BHrGBe4AxENFr9bFd0JN1pVF/9xO
oC8UJpESbS7nPW7xRYdO4kEGcZB6g+vZ+LSRfeLEvmEXSCelYssnreJyhAChlYjT
8xu4KNN+XN76TXgb3GCMOapH421ZAf2AbZ9QX3P4ZmmZ0yQNNkYthg7yAgJVeUSl
Twx9sALiHhMgeQnYn/lk/Z+Tk4cJfY7xddUY0wIeQ22XMvHmhs1yCmMPUfiMy5TZ
LA9ph/vbaZ1qGduic2S5gC/rTuq3zurgkYRegW0qFqS+yC7Q7/Hxjd881ldbr6+Y
j6Wn/EpVtkM=
-----END CERTIFICATE-----
